target datalayout = "e-m:e-p270:32:32-p271:32:32-p272:64:64-i64:64-i128:128-f80:128-n8:16:32:64-S128"
target triple = "x86_64-pc-linux-gnu"

%struct.slurm_conf_t = type { i64, ptr, i16, ptr, ptr, ptr, ptr, ptr, i16, ptr, ptr, ptr, ptr, ptr, ptr, ptr, i16, ptr, ptr, ptr, ptr, i16, ptr, ptr, ptr, i64, ptr, ptr, ptr, ptr, i16, ptr, ptr, i16, i32, ptr, i32, ptr, i32, i32, ptr, ptr, i64, i64, ptr, i16, i16, ptr, i32, i32, ptr, i32, ptr, i32, i16, i16, i16, ptr, i16, i16, ptr, ptr, i32, i16, i16, ptr, i32, i16, ptr, ptr, ptr, ptr, i16, ptr, ptr, ptr, ptr, i32, ptr, ptr, ptr, ptr, i16, i16, ptr, i32, i32, i32, i16, i16, ptr, ptr, i16, ptr, ptr, i32, i32, i32, i32, i32, i64, i32, i32, i16, ptr, ptr, i32, ptr, ptr, ptr, i16, i32, ptr, ptr, i16, ptr, ptr, i32, i16, ptr, ptr, ptr, ptr, i32, i32, i16, i16, i32, ptr, i16, ptr, i32, i32, i32, i32, i32, i32, ptr, i16, ptr, ptr, i32, i16, ptr, i32, i16, i16, ptr, ptr, ptr, i16, ptr, ptr, ptr, ptr, i16, i16, ptr, i16, ptr, i16, ptr, i16, ptr, i16, ptr, ptr, ptr, ptr, i16, ptr, ptr, ptr, i32, ptr, i32, ptr, ptr, i16, ptr, ptr, i32, i16, ptr, ptr, i16, i16, ptr, i16, ptr, ptr, ptr, i32, ptr, i16, i16, ptr, ptr, ptr, ptr, ptr, ptr, ptr, ptr, i16, i32, i16, ptr, ptr, ptr, ptr, i32, ptr, ptr, ptr, i16, ptr, ptr, ptr, i16, ptr, i16, ptr, i16, i16, ptr }
%struct.job_record = type { i32, ptr, ptr, ptr, ptr, i16, i32, i32, i32, ptr, i32, ptr, ptr, i16, ptr, double, i64, ptr, ptr, ptr, ptr, ptr, ptr, i32, ptr, i32, i64, i64, i32, i32, ptr, i16, i64, i64, i8, i32, ptr, ptr, ptr, ptr, ptr, ptr, ptr, ptr, i32, ptr, ptr, i32, ptr, i32, ptr, i32, ptr, i32, ptr, ptr, ptr, ptr, ptr, ptr, i32, i16, i64, ptr, ptr, ptr, ptr, %struct.acct_policy_limit_set_t, i16, ptr, ptr, ptr, ptr, ptr, i32, ptr, ptr, ptr, ptr, ptr, i32, i32, ptr, ptr, ptr, i16, ptr, ptr, i8, ptr, ptr, i64, i64, i8, i32, i32, i8, i32, ptr, i32, i64, i32, ptr, ptr, ptr, i8, i16, i64, i32, ptr, ptr, ptr, ptr, ptr, i16, i32, ptr, ptr, ptr, ptr, i32, ptr, i32, i16, i64, ptr, i32, i32, ptr, i64, ptr, ptr, i64, i32, i32, i64, i32, i32, ptr, ptr, ptr, ptr, ptr, ptr, ptr, ptr, ptr, ptr, ptr, ptr, i32, ptr, i16, i16, i16, i16, ptr, i32, i32, i8, i64 }
%struct.acct_policy_limit_set_t = type { i16, i16, ptr }
%struct.job_state_cached_t = type { i32, i32, i32, i32, i32, ptr }
%struct.job_array_struct = type { i32, ptr, ptr, i32, i32, i32, i32, i32, i32, i32 }

@slurm_conf = external global %struct.slurm_conf_t, align 8
@.str.8 = private unnamed_addr constant [11 x i8] c"_on_insert\00", align 1
@.str.37 = private unnamed_addr constant [29 x i8] c"TRACE_JOBS: %s: %pJ inserted\00", align 1

; Function Attrs: nounwind uwtable
define internal void @_on_insert(ptr noundef %0, ptr noundef %1, i64 noundef %2, ptr noundef %3) #0 {
  %5 = alloca ptr, align 8
  %6 = alloca ptr, align 8
  %7 = alloca i64, align 8
  %8 = alloca ptr, align 8
  %9 = alloca ptr, align 8
  %10 = alloca ptr, align 8
  %11 = alloca ptr, align 8
  %12 = alloca %struct.job_state_cached_t, align 8
  %13 = alloca %struct.job_record, align 8
  %14 = alloca %struct.job_array_struct, align 8
  store ptr %0, ptr %5, align 8
  store ptr %1, ptr %6, align 8
  store i64 %2, ptr %7, align 8
  store ptr %3, ptr %8, align 8
  call void @llvm.lifetime.start.p0(i64 8, ptr %9) #8
  %15 = load ptr, ptr %5, align 8
  store ptr %15, ptr %9, align 8
  call void @llvm.lifetime.start.p0(i64 8, ptr %10) #8
  %16 = load ptr, ptr %6, align 8
  store ptr %16, ptr %10, align 8
  call void @llvm.lifetime.start.p0(i64 8, ptr %11) #8
  %17 = load ptr, ptr %8, align 8
  store ptr %17, ptr %11, align 8
  %18 = load ptr, ptr %9, align 8
  %19 = getelementptr inbounds nuw %struct.job_state_cached_t, ptr %12, i32 0, i32 0
  %20 = load ptr, ptr %10, align 8
  %21 = load i32, ptr %20, align 4
  store i32 %21, ptr %19, align 8
  %22 = getelementptr inbounds nuw %struct.job_state_cached_t, ptr %12, i32 0, i32 1
  store i32 -2, ptr %22, align 4
  %23 = getelementptr inbounds nuw %struct.job_state_cached_t, ptr %12, i32 0, i32 2
  store i32 0, ptr %23, align 8
  %24 = getelementptr inbounds nuw %struct.job_state_cached_t, ptr %12, i32 0, i32 3
  store i32 0, ptr %24, align 4
  %25 = getelementptr inbounds nuw %struct.job_state_cached_t, ptr %12, i32 0, i32 4
  store i32 -2, ptr %25, align 8
  %26 = getelementptr i8, ptr %12, i64 20
  call void @llvm.memset.p0.i64(ptr align 4 %26, i8 0, i64 4, i1 false)
  %27 = getelementptr inbounds nuw %struct.job_state_cached_t, ptr %12, i32 0, i32 5
  store ptr null, ptr %27, align 8
  call void @llvm.memcpy.p0.p0.i64(ptr align 8 %18, ptr align 8 %12, i64 32, i1 false)
  br label %28

28:                                               ; preds = %4
  %29 = load i64, ptr getelementptr inbounds nuw (%struct.slurm_conf_t, ptr @slurm_conf, i32 0, i32 42), align 8
  %30 = and i64 %29, 268435456
  %31 = icmp ne i64 %30, 0
  br i1 %31, label %32, label %80

32:                                               ; preds = %28
  br label %33

33:                                               ; preds = %32
  %34 = call i32 @get_log_level()
  %35 = icmp sge i32 %34, 4
  br i1 %35, label %36, label %77

36:                                               ; preds = %33
  call void @llvm.memset.p0.i64(ptr align 8 %13, i8 0, i64 1152, i1 false)
  %37 = getelementptr inbounds nuw %struct.job_record, ptr %13, i32 0, i32 0
  store i32 -256427732, ptr %37, align 8
  %38 = getelementptr inbounds nuw %struct.job_record, ptr %13, i32 0, i32 7
  %39 = load ptr, ptr %9, align 8
  %40 = getelementptr inbounds nuw %struct.job_state_cached_t, ptr %39, i32 0, i32 3
  %41 = load i32, ptr %40, align 4
  store i32 %41, ptr %38, align 8
  %42 = getelementptr inbounds nuw %struct.job_record, ptr %13, i32 0, i32 8
  %43 = load ptr, ptr %9, align 8
  %44 = getelementptr inbounds nuw %struct.job_state_cached_t, ptr %43, i32 0, i32 4
  %45 = load i32, ptr %44, align 8
  store i32 %45, ptr %42, align 4
  %46 = getelementptr inbounds nuw %struct.job_record, ptr %13, i32 0, i32 9
  %47 = load ptr, ptr %9, align 8
  %48 = getelementptr inbounds nuw %struct.job_state_cached_t, ptr %47, i32 0, i32 5
  %49 = load ptr, ptr %48, align 8
  %50 = icmp ne ptr %49, null
  br i1 %50, label %52, label %51

51:                                               ; preds = %36
  br label %63

52:                                               ; preds = %36
  call void @llvm.memset.p0.i64(ptr align 8 %14, i8 0, i64 56, i1 false)
  %53 = getelementptr inbounds nuw %struct.job_array_struct, ptr %14, i32 0, i32 0
  %54 = load ptr, ptr %9, align 8
  %55 = getelementptr inbounds nuw %struct.job_state_cached_t, ptr %54, i32 0, i32 5
  %56 = load ptr, ptr %55, align 8
  %57 = call i64 @bit_size(ptr noundef %56)
  %58 = trunc i64 %57 to i32
  store i32 %58, ptr %53, align 8
  %59 = getelementptr inbounds nuw %struct.job_array_struct, ptr %14, i32 0, i32 1
  %60 = load ptr, ptr %9, align 8
  %61 = getelementptr inbounds nuw %struct.job_state_cached_t, ptr %60, i32 0, i32 5
  %62 = load ptr, ptr %61, align 8
  store ptr %62, ptr %59, align 8
  br label %63

63:                                               ; preds = %52, %51
  %64 = phi ptr [ null, %51 ], [ %14, %52 ]
  store ptr %64, ptr %46, align 8
  %65 = getelementptr inbounds nuw %struct.job_record, ptr %13, i32 0, i32 49
  %66 = load ptr, ptr %9, align 8
  %67 = getelementptr inbounds nuw %struct.job_state_cached_t, ptr %66, i32 0, i32 2
  %68 = load i32, ptr %67, align 8
  store i32 %68, ptr %65, align 8
  %69 = getelementptr inbounds nuw %struct.job_record, ptr %13, i32 0, i32 53
  %70 = load ptr, ptr %9, align 8
  %71 = getelementptr inbounds nuw %struct.job_state_cached_t, ptr %70, i32 0, i32 0
  %72 = load i32, ptr %71, align 8
  store i32 %72, ptr %69, align 8
  %73 = getelementptr inbounds nuw %struct.job_record, ptr %13, i32 0, i32 60
  %74 = load ptr, ptr %9, align 8
  %75 = getelementptr inbounds nuw %struct.job_state_cached_t, ptr %74, i32 0, i32 1
  %76 = load i32, ptr %75, align 4
  store i32 %76, ptr %73, align 8
  call void (i32, ptr, ...) @log_var(i32 noundef 4, ptr noundef @.str.37, ptr noundef @.str.8, ptr noundef %13)
  br label %77

77:                                               ; preds = %63, %33
  br label %78

78:                                               ; preds = %77
  br label %79

79:                                               ; preds = %78
  br label %80

80:                                               ; preds = %79, %28
  br label %81

81:                                               ; preds = %80
  br label %82

82:                                               ; preds = %81
  call void @llvm.lifetime.end.p0(i64 8, ptr %11) #8
  call void @llvm.lifetime.end.p0(i64 8, ptr %10) #8
  call void @llvm.lifetime.end.p0(i64 8, ptr %9) #8
  ret void
}