; Function Attrs: nounwind uwtable
define internal void @_on_insert(ptr noundef captures(none) initializes((0, 32)) %0, ptr noundef readonly captures(none) %1, i64 %2, ptr readnone captures(none) %3) #0 {
  %5 = alloca %struct.job_record, align 8
  %6 = alloca %struct.job_array_struct, align 8
  %7 = load i32, ptr %1, align 4
  store i32 %7, ptr %0, align 8
  %.sroa.2.0..sroa_idx = getelementptr inbounds nuw i8, ptr %0, i64 4
  store i32 -2, ptr %.sroa.2.0..sroa_idx, align 4
  %.sroa.3.0..sroa_idx = getelementptr inbounds nuw i8, ptr %0, i64 8
  store i32 0, ptr %.sroa.3.0..sroa_idx, align 8
  %.sroa.4.0..sroa_idx = getelementptr inbounds nuw i8, ptr %0, i64 12
  store i32 0, ptr %.sroa.4.0..sroa_idx, align 4
  %.sroa.5.0..sroa_idx = getelementptr inbounds nuw i8, ptr %0, i64 16
  store i32 -2, ptr %.sroa.5.0..sroa_idx, align 8
  %.sroa.6.0..sroa_idx = getelementptr inbounds nuw i8, ptr %0, i64 20
  store i32 0, ptr %.sroa.6.0..sroa_idx, align 4
  %.sroa.7.0..sroa_idx = getelementptr inbounds nuw i8, ptr %0, i64 24
  store ptr null, ptr %.sroa.7.0..sroa_idx, align 8
  %8 = load i64, ptr getelementptr inbounds nuw (i8, ptr @slurm_conf, i64 320), align 8
  %9 = and i64 %8, 268435456
  %.not = icmp eq i64 %9, 0
  br i1 %.not, label %33, label %10

10:                                               ; preds = %4
  %11 = tail call i32 @get_log_level() #9
  %12 = icmp sgt i32 %11, 3
  br i1 %12, label %13, label %33

13:                                               ; preds = %10
  call void @llvm.memset.p0.i64(ptr noundef nonnull align 8 dereferenceable(1152) %5, i8 0, i64 1152, i1 false)
  store i32 -256427732, ptr %5, align 8
  %14 = getelementptr inbounds nuw i8, ptr %5, i64 48
  %15 = load i32, ptr %.sroa.4.0..sroa_idx, align 4
  store i32 %15, ptr %14, align 8
  %16 = getelementptr inbounds nuw i8, ptr %5, i64 52
  %17 = load i32, ptr %.sroa.5.0..sroa_idx, align 8
  store i32 %17, ptr %16, align 4
  %18 = getelementptr inbounds nuw i8, ptr %5, i64 56
  %19 = load ptr, ptr %.sroa.7.0..sroa_idx, align 8
  %.not13 = icmp eq ptr %19, null
  br i1 %.not13, label %25, label %20

20:                                               ; preds = %13
  call void @llvm.memset.p0.i64(ptr noundef nonnull align 8 dereferenceable(56) %6, i8 0, i64 56, i1 false)
  %21 = tail call i64 @bit_size(ptr noundef nonnull %19) #9
  %22 = trunc i64 %21 to i32
  store i32 %22, ptr %6, align 8
  %23 = getelementptr inbounds nuw i8, ptr %6, i64 8
  %24 = load ptr, ptr %.sroa.7.0..sroa_idx, align 8
  store ptr %24, ptr %23, align 8
  br label %25

25:                                               ; preds = %13, %20
  %26 = phi ptr [ %6, %20 ], [ null, %13 ]
  store ptr %26, ptr %18, align 8
  %27 = getelementptr inbounds nuw i8, ptr %5, i64 360
  %28 = load i32, ptr %.sroa.3.0..sroa_idx, align 8
  store i32 %28, ptr %27, align 8
  %29 = getelementptr inbounds nuw i8, ptr %5, i64 392
  %30 = load i32, ptr %0, align 8
  store i32 %30, ptr %29, align 8
  %31 = getelementptr inbounds nuw i8, ptr %5, i64 448
  %32 = load i32, ptr %.sroa.2.0..sroa_idx, align 4
  store i32 %32, ptr %31, align 8
  call void (i32, ptr, ...) @log_var(i32 noundef 4, ptr noundef nonnull @.str.37, ptr noundef nonnull @.str.8, ptr noundef nonnull %5) #9
  br label %33

33:                                               ; preds = %10, %25, %4
  ret void
}